; Function Attrs: nounwind uwtable
define i32 @lv_circle_buf_capacity(ptr noundef %0) local_unnamed_addr #0 {
  %.not = icmp eq ptr %0, null
  br i1 %.not, label %.preheader, label %2

.preheader:                                       ; preds = %1, %.preheader
  br label %.preheader

2:                                                ; preds = %1
  %3 = tail call i32 @lv_array_capacity(ptr noundef nonnull %0) #6
  ret i32 %3
}